target datalayout = "e-m:e-p270:32:32-p271:32:32-p272:64:64-i64:64-i128:128-f80:128-n8:16:32:64-S128"
target triple = "x86_64-pc-linux-gnu"

%struct.AudioData = type { [64 x ptr], ptr, i32, i32, i32, i32, i32 }

@.str.20 = private unnamed_addr constant [30 x i8] c"Assertion %s failed at %s:%d\0A\00", align 1
@.str.22 = private unnamed_addr constant [27 x i8] c"libswresample/swresample.c\00", align 1
@.str.29 = private unnamed_addr constant [7 x i8] c"a->bps\00", align 1
@.str.30 = private unnamed_addr constant [12 x i8] c"a->ch_count\00", align 1

; Function Attrs: nounwind uwtable
define i32 @swri_realloc_audio(ptr noundef %0, i32 noundef %1) #0 {
  %3 = alloca i32, align 4
  %4 = alloca ptr, align 8
  %5 = alloca i32, align 4
  %6 = alloca i32, align 4
  %7 = alloca i32, align 4
  %8 = alloca %struct.AudioData, align 8
  %9 = alloca i32, align 4
  store ptr %0, ptr %4, align 8, !tbaa !96
  store i32 %1, ptr %5, align 4, !tbaa !31
  call void @llvm.lifetime.start.p0(i64 4, ptr %6) #9
  call void @llvm.lifetime.start.p0(i64 4, ptr %7) #9
  call void @llvm.lifetime.start.p0(i64 544, ptr %8) #9
  %10 = load i32, ptr %5, align 4, !tbaa !31
  %11 = icmp slt i32 %10, 0
  br i1 %11, label %23, label %12

12:                                               ; preds = %2
  %13 = load i32, ptr %5, align 4, !tbaa !31
  %14 = load ptr, ptr %4, align 8, !tbaa !96
  %15 = getelementptr inbounds nuw %struct.AudioData, ptr %14, i32 0, i32 3
  %16 = load i32, ptr %15, align 4, !tbaa !99
  %17 = sdiv i32 1073741823, %16
  %18 = load ptr, ptr %4, align 8, !tbaa !96
  %19 = getelementptr inbounds nuw %struct.AudioData, ptr %18, i32 0, i32 2
  %20 = load i32, ptr %19, align 8, !tbaa !101
  %21 = sdiv i32 %17, %20
  %22 = icmp sgt i32 %13, %21
  br i1 %22, label %23, label %24

23:                                               ; preds = %12, %2
  store i32 -22, ptr %3, align 4
  store i32 1, ptr %9, align 4
  br label %175

24:                                               ; preds = %12
  %25 = load ptr, ptr %4, align 8, !tbaa !96
  %26 = getelementptr inbounds nuw %struct.AudioData, ptr %25, i32 0, i32 4
  %27 = load i32, ptr %26, align 8, !tbaa !102
  %28 = load i32, ptr %5, align 4, !tbaa !31
  %29 = icmp sge i32 %27, %28
  br i1 %29, label %30, label %31

30:                                               ; preds = %24
  store i32 0, ptr %3, align 4
  store i32 1, ptr %9, align 4
  br label %175

31:                                               ; preds = %24
  %32 = load i32, ptr %5, align 4, !tbaa !31
  %33 = mul nsw i32 %32, 2
  store i32 %33, ptr %5, align 4, !tbaa !31
  %34 = load i32, ptr %5, align 4, !tbaa !31
  %35 = load ptr, ptr %4, align 8, !tbaa !96
  %36 = getelementptr inbounds nuw %struct.AudioData, ptr %35, i32 0, i32 3
  %37 = load i32, ptr %36, align 4, !tbaa !99
  %38 = mul nsw i32 %34, %37
  %39 = add nsw i32 %38, 32
  %40 = sub nsw i32 %39, 1
  %41 = and i32 %40, -32
  store i32 %41, ptr %7, align 4, !tbaa !31
  %42 = load ptr, ptr %4, align 8, !tbaa !96
  call void @llvm.memcpy.p0.p0.i64(ptr align 8 %8, ptr align 8 %42, i64 544, i1 false), !tbaa.struct !84
  br label %43

43:                                               ; preds = %31
  %44 = load ptr, ptr %4, align 8, !tbaa !96
  %45 = getelementptr inbounds nuw %struct.AudioData, ptr %44, i32 0, i32 3
  %46 = load i32, ptr %45, align 4, !tbaa !99
  %47 = icmp ne i32 %46, 0
  br i1 %47, label %49, label %48

48:                                               ; preds = %43
  call void (ptr, i32, ptr, ...) @av_log(ptr noundef null, i32 noundef 0, ptr noundef @.str.20, ptr noundef @.str.29, ptr noundef @.str.22, i32 noundef 417)
  call void @abort() #10
  unreachable

49:                                               ; preds = %43
  br label %50

50:                                               ; preds = %49
  br label %51

51:                                               ; preds = %50
  br label %52

52:                                               ; preds = %51
  %53 = load ptr, ptr %4, align 8, !tbaa !96
  %54 = getelementptr inbounds nuw %struct.AudioData, ptr %53, i32 0, i32 2
  %55 = load i32, ptr %54, align 8, !tbaa !101
  %56 = icmp ne i32 %55, 0
  br i1 %56, label %58, label %57

57:                                               ; preds = %52
  call void (ptr, i32, ptr, ...) @av_log(ptr noundef null, i32 noundef 0, ptr noundef @.str.20, ptr noundef @.str.30, ptr noundef @.str.22, i32 noundef 418)
  call void @abort() #10
  unreachable

58:                                               ; preds = %52
  br label %59

59:                                               ; preds = %58
  br label %60

60:                                               ; preds = %59
  %61 = load i32, ptr %7, align 4, !tbaa !31
  %62 = sext i32 %61 to i64
  %63 = load ptr, ptr %4, align 8, !tbaa !96
  %64 = getelementptr inbounds nuw %struct.AudioData, ptr %63, i32 0, i32 2
  %65 = load i32, ptr %64, align 8, !tbaa !101
  %66 = sext i32 %65 to i64
  %67 = call noalias ptr @av_calloc(i64 noundef %62, i64 noundef %66)
  %68 = load ptr, ptr %4, align 8, !tbaa !96
  %69 = getelementptr inbounds nuw %struct.AudioData, ptr %68, i32 0, i32 1
  store ptr %67, ptr %69, align 8, !tbaa !103
  %70 = load ptr, ptr %4, align 8, !tbaa !96
  %71 = getelementptr inbounds nuw %struct.AudioData, ptr %70, i32 0, i32 1
  %72 = load ptr, ptr %71, align 8, !tbaa !103
  %73 = icmp ne ptr %72, null
  br i1 %73, label %75, label %74

74:                                               ; preds = %60
  store i32 -12, ptr %3, align 4
  store i32 1, ptr %9, align 4
  br label %175

75:                                               ; preds = %60
  store i32 0, ptr %6, align 4, !tbaa !31
  br label %76

76:                                               ; preds = %137, %75
  %77 = load i32, ptr %6, align 4, !tbaa !31
  %78 = load ptr, ptr %4, align 8, !tbaa !96
  %79 = getelementptr inbounds nuw %struct.AudioData, ptr %78, i32 0, i32 2
  %80 = load i32, ptr %79, align 8, !tbaa !101
  %81 = icmp slt i32 %77, %80
  br i1 %81, label %82, label %140

82:                                               ; preds = %76
  %83 = load ptr, ptr %4, align 8, !tbaa !96
  %84 = getelementptr inbounds nuw %struct.AudioData, ptr %83, i32 0, i32 1
  %85 = load ptr, ptr %84, align 8, !tbaa !103
  %86 = load i32, ptr %6, align 4, !tbaa !31
  %87 = load ptr, ptr %4, align 8, !tbaa !96
  %88 = getelementptr inbounds nuw %struct.AudioData, ptr %87, i32 0, i32 5
  %89 = load i32, ptr %88, align 4, !tbaa !100
  %90 = icmp ne i32 %89, 0
  br i1 %90, label %91, label %93

91:                                               ; preds = %82
  %92 = load i32, ptr %7, align 4, !tbaa !31
  br label %97

93:                                               ; preds = %82
  %94 = load ptr, ptr %4, align 8, !tbaa !96
  %95 = getelementptr inbounds nuw %struct.AudioData, ptr %94, i32 0, i32 3
  %96 = load i32, ptr %95, align 4, !tbaa !99
  br label %97

97:                                               ; preds = %93, %91
  %98 = phi i32 [ %92, %91 ], [ %96, %93 ]
  %99 = mul nsw i32 %86, %98
  %100 = sext i32 %99 to i64
  %101 = getelementptr inbounds i8, ptr %85, i64 %100
  %102 = load ptr, ptr %4, align 8, !tbaa !96
  %103 = getelementptr inbounds nuw %struct.AudioData, ptr %102, i32 0, i32 0
  %104 = load i32, ptr %6, align 4, !tbaa !31
  %105 = sext i32 %104 to i64
  %106 = getelementptr inbounds [64 x ptr], ptr %103, i64 0, i64 %105
  store ptr %101, ptr %106, align 8, !tbaa !86
  %107 = load ptr, ptr %4, align 8, !tbaa !96
  %108 = getelementptr inbounds nuw %struct.AudioData, ptr %107, i32 0, i32 4
  %109 = load i32, ptr %108, align 8, !tbaa !102
  %110 = icmp ne i32 %109, 0
  br i1 %110, label %111, label %136

111:                                              ; preds = %97
  %112 = load ptr, ptr %4, align 8, !tbaa !96
  %113 = getelementptr inbounds nuw %struct.AudioData, ptr %112, i32 0, i32 5
  %114 = load i32, ptr %113, align 4, !tbaa !100
  %115 = icmp ne i32 %114, 0
  br i1 %115, label %116, label %136

116:                                              ; preds = %111
  %117 = load ptr, ptr %4, align 8, !tbaa !96
  %118 = getelementptr inbounds nuw %struct.AudioData, ptr %117, i32 0, i32 0
  %119 = load i32, ptr %6, align 4, !tbaa !31
  %120 = sext i32 %119 to i64
  %121 = getelementptr inbounds [64 x ptr], ptr %118, i64 0, i64 %120
  %122 = load ptr, ptr %121, align 8, !tbaa !86
  %123 = getelementptr inbounds nuw %struct.AudioData, ptr %8, i32 0, i32 0
  %124 = load i32, ptr %6, align 4, !tbaa !31
  %125 = sext i32 %124 to i64
  %126 = getelementptr inbounds [64 x ptr], ptr %123, i64 0, i64 %125
  %127 = load ptr, ptr %126, align 8, !tbaa !86
  %128 = load ptr, ptr %4, align 8, !tbaa !96
  %129 = getelementptr inbounds nuw %struct.AudioData, ptr %128, i32 0, i32 4
  %130 = load i32, ptr %129, align 8, !tbaa !102
  %131 = load ptr, ptr %4, align 8, !tbaa !96
  %132 = getelementptr inbounds nuw %struct.AudioData, ptr %131, i32 0, i32 3
  %133 = load i32, ptr %132, align 4, !tbaa !99
  %134 = mul nsw i32 %130, %133
  %135 = sext i32 %134 to i64
  call void @llvm.memcpy.p0.p0.i64(ptr align 1 %122, ptr align 1 %127, i64 %135, i1 false)
  br label %136

136:                                              ; preds = %116, %111, %97
  br label %137

137:                                              ; preds = %136
  %138 = load i32, ptr %6, align 4, !tbaa !31
  %139 = add nsw i32 %138, 1
  store i32 %139, ptr %6, align 4, !tbaa !31
  br label %76, !llvm.loop !104

140:                                              ; preds = %76
  %141 = load ptr, ptr %4, align 8, !tbaa !96
  %142 = getelementptr inbounds nuw %struct.AudioData, ptr %141, i32 0, i32 4
  %143 = load i32, ptr %142, align 8, !tbaa !102
  %144 = icmp ne i32 %143, 0
  br i1 %144, label %145, label %170

145:                                              ; preds = %140
  %146 = load ptr, ptr %4, align 8, !tbaa !96
  %147 = getelementptr inbounds nuw %struct.AudioData, ptr %146, i32 0, i32 5
  %148 = load i32, ptr %147, align 4, !tbaa !100
  %149 = icmp ne i32 %148, 0
  br i1 %149, label %170, label %150

150:                                              ; preds = %145
  %151 = load ptr, ptr %4, align 8, !tbaa !96
  %152 = getelementptr inbounds nuw %struct.AudioData, ptr %151, i32 0, i32 0
  %153 = getelementptr inbounds [64 x ptr], ptr %152, i64 0, i64 0
  %154 = load ptr, ptr %153, align 8, !tbaa !86
  %155 = getelementptr inbounds nuw %struct.AudioData, ptr %8, i32 0, i32 0
  %156 = getelementptr inbounds [64 x ptr], ptr %155, i64 0, i64 0
  %157 = load ptr, ptr %156, align 8, !tbaa !86
  %158 = load ptr, ptr %4, align 8, !tbaa !96
  %159 = getelementptr inbounds nuw %struct.AudioData, ptr %158, i32 0, i32 4
  %160 = load i32, ptr %159, align 8, !tbaa !102
  %161 = load ptr, ptr %4, align 8, !tbaa !96
  %162 = getelementptr inbounds nuw %struct.AudioData, ptr %161, i32 0, i32 2
  %163 = load i32, ptr %162, align 8, !tbaa !101
  %164 = mul nsw i32 %160, %163
  %165 = load ptr, ptr %4, align 8, !tbaa !96
  %166 = getelementptr inbounds nuw %struct.AudioData, ptr %165, i32 0, i32 3
  %167 = load i32, ptr %166, align 4, !tbaa !99
  %168 = mul nsw i32 %164, %167
  %169 = sext i32 %168 to i64
  call void @llvm.memcpy.p0.p0.i64(ptr align 1 %154, ptr align 1 %157, i64 %169, i1 false)
  br label %170

170:                                              ; preds = %150, %145, %140
  %171 = getelementptr inbounds nuw %struct.AudioData, ptr %8, i32 0, i32 1
  call void @av_freep(ptr noundef %171)
  %172 = load i32, ptr %5, align 4, !tbaa !31
  %173 = load ptr, ptr %4, align 8, !tbaa !96
  %174 = getelementptr inbounds nuw %struct.AudioData, ptr %173, i32 0, i32 4
  store i32 %172, ptr %174, align 8, !tbaa !102
  store i32 1, ptr %3, align 4
  store i32 1, ptr %9, align 4
  br label %175

175:                                              ; preds = %170, %74, %30, %23
  call void @llvm.lifetime.end.p0(i64 544, ptr %8) #9
  call void @llvm.lifetime.end.p0(i64 4, ptr %7) #9
  call void @llvm.lifetime.end.p0(i64 4, ptr %6) #9
  %176 = load i32, ptr %3, align 4
  ret i32 %176
}