; Function Attrs: nounwind uwtable
define range(i32 -22, 2) i32 @swri_realloc_audio(ptr noundef captures(none) %0, i32 noundef %1) local_unnamed_addr #1 {
  %3 = alloca %struct.AudioData, align 8
  call void @llvm.lifetime.start.p0(i64 544, ptr nonnull %3) #12
  %4 = icmp slt i32 %1, 0
  br i1 %4, label %72, label %5

5:                                                ; preds = %2
  %6 = getelementptr inbounds nuw i8, ptr %0, i64 524
  %7 = load i32, ptr %6, align 4, !tbaa !91
  %8 = sdiv i32 1073741823, %7
  %9 = getelementptr inbounds nuw i8, ptr %0, i64 520
  %10 = load i32, ptr %9, align 8, !tbaa !92
  %11 = sdiv i32 %8, %10
  %12 = icmp sgt i32 %1, %11
  br i1 %12, label %72, label %13

13:                                               ; preds = %5
  %14 = getelementptr inbounds nuw i8, ptr %0, i64 528
  %15 = load i32, ptr %14, align 8, !tbaa !93
  %.not = icmp slt i32 %15, %1
  br i1 %.not, label %16, label %72

16:                                               ; preds = %13
  %17 = shl nuw nsw i32 %1, 1
  %18 = mul nsw i32 %7, %17
  %19 = add nsw i32 %18, 31
  %20 = and i32 %19, -32
  call void @llvm.memcpy.p0.p0.i64(ptr noundef nonnull align 8 dereferenceable(544) %3, ptr noundef nonnull align 8 dereferenceable(544) %0, i64 544, i1 false), !tbaa.struct !77
  %21 = sext i32 %20 to i64
  %22 = sext i32 %10 to i64
  %23 = tail call noalias ptr @av_calloc(i64 noundef %21, i64 noundef %22) #12
  %24 = getelementptr inbounds nuw i8, ptr %0, i64 512
  store ptr %23, ptr %24, align 8, !tbaa !33
  %.not49 = icmp eq ptr %23, null
  br i1 %.not49, label %72, label %.preheader

.preheader:                                       ; preds = %16
  %25 = load i32, ptr %9, align 8, !tbaa !92
  %26 = icmp sgt i32 %25, 0
  br i1 %26, label %.lr.ph, label %._crit_edge

.lr.ph:                                           ; preds = %.preheader
  %27 = getelementptr inbounds nuw i8, ptr %0, i64 532
  %28 = load i32, ptr %27, align 4, !tbaa !94
  %29 = icmp eq i32 %28, 0
  br i1 %29, label %.lr.ph.split.us, label %.lr.ph.split

.lr.ph.split.us:                                  ; preds = %.lr.ph
  %30 = load i32, ptr %6, align 4, !tbaa !91
  %31 = sext i32 %30 to i64
  %wide.trip.count = zext nneg i32 %25 to i64
  br label %32

32:                                               ; preds = %32, %.lr.ph.split.us
  %indvars.iv61 = phi i64 [ %indvars.iv.next62, %32 ], [ 0, %.lr.ph.split.us ]
  %33 = load ptr, ptr %24, align 8, !tbaa !33
  %34 = mul nsw i64 %indvars.iv61, %31
  %35 = getelementptr inbounds i8, ptr %33, i64 %34
  %36 = getelementptr inbounds nuw [64 x ptr], ptr %0, i64 0, i64 %indvars.iv61
  store ptr %35, ptr %36, align 8, !tbaa !79
  %indvars.iv.next62 = add nuw nsw i64 %indvars.iv61, 1
  %exitcond.not = icmp eq i64 %indvars.iv.next62, %wide.trip.count
  br i1 %exitcond.not, label %._crit_edge, label %32, !llvm.loop !95

.lr.ph.splitthread-pre-split:                     ; preds = %55
  %.pr = load i32, ptr %27, align 4, !tbaa !94
  br label %.lr.ph.split

.lr.ph.split:                                     ; preds = %.lr.ph, %.lr.ph.splitthread-pre-split
  %37 = phi i32 [ %.pr, %.lr.ph.splitthread-pre-split ], [ 1, %.lr.ph ]
  %38 = phi i32 [ %56, %.lr.ph.splitthread-pre-split ], [ %25, %.lr.ph ]
  %indvars.iv = phi i64 [ %indvars.iv.next, %.lr.ph.splitthread-pre-split ], [ 0, %.lr.ph ]
  %39 = load ptr, ptr %24, align 8, !tbaa !33
  %.not52 = icmp eq i32 %37, 0
  br i1 %.not52, label %40, label %.thread

40:                                               ; preds = %.lr.ph.split
  %41 = load i32, ptr %6, align 4, !tbaa !91
  %42 = sext i32 %41 to i64
  %43 = mul nsw i64 %indvars.iv, %42
  %44 = getelementptr inbounds i8, ptr %39, i64 %43
  %45 = getelementptr inbounds nuw [64 x ptr], ptr %0, i64 0, i64 %indvars.iv
  store ptr %44, ptr %45, align 8, !tbaa !79
  br label %55

.thread:                                          ; preds = %.lr.ph.split
  %46 = mul nsw i64 %indvars.iv, %21
  %47 = getelementptr inbounds i8, ptr %39, i64 %46
  %48 = getelementptr inbounds nuw [64 x ptr], ptr %0, i64 0, i64 %indvars.iv
  store ptr %47, ptr %48, align 8, !tbaa !79
  %49 = load i32, ptr %14, align 8, !tbaa !93
  %.not5355 = icmp eq i32 %49, 0
  br i1 %.not5355, label %55, label %.thread56

.thread56:                                        ; preds = %.thread
  %50 = getelementptr inbounds nuw [64 x ptr], ptr %3, i64 0, i64 %indvars.iv
  %51 = load ptr, ptr %50, align 8, !tbaa !79
  %52 = load i32, ptr %6, align 4, !tbaa !91
  %53 = mul nsw i32 %52, %49
  %54 = sext i32 %53 to i64
  tail call void @llvm.memcpy.p0.p0.i64(ptr align 1 %47, ptr align 1 %51, i64 %54, i1 false)
  %.pre = load i32, ptr %9, align 8, !tbaa !92
  br label %55

55:                                               ; preds = %40, %.thread, %.thread56
  %56 = phi i32 [ %38, %40 ], [ %38, %.thread ], [ %.pre, %.thread56 ]
  %indvars.iv.next = add nuw nsw i64 %indvars.iv, 1
  %57 = sext i32 %56 to i64
  %58 = icmp slt i64 %indvars.iv.next, %57
  br i1 %58, label %.lr.ph.splitthread-pre-split, label %._crit_edge, !llvm.loop !97

._crit_edge:                                      ; preds = %55, %32, %.preheader
  %.lcssa = phi i32 [ %25, %.preheader ], [ %25, %32 ], [ %56, %55 ]
  %59 = load i32, ptr %14, align 8, !tbaa !93
  %.not50 = icmp eq i32 %59, 0
  br i1 %.not50, label %70, label %60

60:                                               ; preds = %._crit_edge
  %61 = getelementptr inbounds nuw i8, ptr %0, i64 532
  %62 = load i32, ptr %61, align 4, !tbaa !94
  %.not51 = icmp eq i32 %62, 0
  br i1 %.not51, label %63, label %70

63:                                               ; preds = %60
  %64 = load ptr, ptr %0, align 8, !tbaa !79
  %65 = load ptr, ptr %3, align 8, !tbaa !79
  %66 = mul nsw i32 %59, %.lcssa
  %67 = load i32, ptr %6, align 4, !tbaa !91
  %68 = mul nsw i32 %66, %67
  %69 = sext i32 %68 to i64
  tail call void @llvm.memcpy.p0.p0.i64(ptr align 1 %64, ptr align 1 %65, i64 %69, i1 false)
  br label %70

70:                                               ; preds = %63, %60, %._crit_edge
  %71 = getelementptr inbounds nuw i8, ptr %3, i64 512
  call void @av_freep(ptr noundef nonnull %71) #12
  store i32 %17, ptr %14, align 8, !tbaa !93
  br label %72

72:                                               ; preds = %16, %13, %2, %5, %70
  %.0 = phi i32 [ 1, %70 ], [ -22, %5 ], [ -22, %2 ], [ 0, %13 ], [ -12, %16 ]
  call void @llvm.lifetime.end.p0(i64 544, ptr nonnull %3) #12
  ret i32 %.0
}